(lp1
F0.66379701277980196
aF0.65980409878966861
aF0.65415367875698283
aF0.74865660005400458
aF0.74409941893759346
aF0.7377629806615783
aF0
aF0.5837864034925665
aF0.57512030595877839
aF1
aF0.99189370176065361
aF0.98066278354073677
aF0.67411569543911631
aF0.6744474252026742
aF0.67456910570814654
aF0.78889557913756814
aF0.78909859164825413
aF0.78884720538227049
aF0.23135846879495595
aF0.8151448722875223
aF0.80647877475373431
aF0.6637970127798013
aF0.65918537739535921
aF0.65361740814939995
a.(lp1
F0.6382045641493671
aF0.6380498622150429
aF0.6346102144025183
aF0.74835840208145921
aF0.74666920717743623
aF0.74165412202785941
aF0
aF0.57253706176473185
aF0.56315559432278783
aF0.99197019590716173
aF1
aF0.99752001170855154
aF0.70504617461384156
aF0.6965104963753499
aF0.69064174851278282
aF0.85825944966743806
aF0.84256482903917851
aF0.83333067765198832
aF0.27869173089552801
aF0.85122879266025997
aF0.84184732521831596
aF0.63820456414934323
aF0.63664460470859308
aF0.63353077874789332
a.(lp1
F0.62914510968513893
aF0.6260376797957935
aF0.62814452952060207
aF0.72973471934806333
aF0.72631977885458299
aF0.72778675437464169
aF0
aF0.55921397524312144
aF0.55049072050461101
aF1
aF0.99137343497466957
aF0.99177968303805641
aF0.65252647499111127
aF0.65297305535793093
aF0.65943754153213963
aF0.77763547574252045
aF0.78094189670906677
aF0.78846237190588453
aF0.26470238860121087
aF0.82391636384433231
aF0.81519310910582177
aF0.6291451096851346
aF0.62505207262717388
aF0.62755416819398013
a.(lp1
F0.64691229070939249
aF0.6447311793958509
aF0.64607671593172955
aF0.74141939128838374
aF0.73816042714894603
aF0.73929486477902351
aF0
aF0.57798678817599158
aF0.56951082105682493
aF1
aF0.99882574559657233
aF0.99796111472721327
aF0.68497723359760887
aF0.68088226096169358
aF0.68388508535412895
aF0.81633804818805045
aF0.81049304223306873
aF0.81775955926828903
aF0.26150415461436849
aF0.83949094279036007
aF0.83101497567119342
aF0.64691229070939216
aF0.6438548480601568
aF0.64553323399528084
a.(lp1
F0.61506870542610781
aF0.61345820262852613
aF0.61444555930579559
aF0.71675961873044014
aF0.71504228669693937
aF0.71545360524140211
aF0
aF0.53700695805335807
aF0.52792071653418893
aF1
aF0.99767882300160671
aF0.99440478687617928
aF0.65509391474041656
aF0.65432712248980851
aF0.6616597084567889
aF0.79970937830631972
aF0.79787274087102467
aF0.80905039723860039
aF0.28415511185152065
aF0.82116206990487872
aF0.81207582838570969
aF0.61506870542608094
aF0.61270645759785669
aF0.61396891900586281
a.(lp1
F0.62608544962374535
aF0.62251018169161609
aF0.6213042099572893
aF0.72220101804968917
aF0.71781644951898704
aF0.71909571289495078
aF0
aF0.548340495310079
aF0.5396527674669096
aF1
aF0.99154616966554587
aF0.98921278802630785
aF0.66359597066273501
aF0.66609618309781016
aF0.66765248676856193
aF0.80382217851175908
aF0.80667954773005157
aF0.80670838222724583
aF0.27481436966251799
aF0.82315486497259693
aF0.81446713712942753
aF0.62608544962374069
aF0.62182703363603398
aF0.62082468290227766
a.(lp1
F0.62056156661058481
aF0.61717252864226202
aF0.61597738226954146
aF0.72134859374684379
aF0.71711869158899144
aF0.71815257146005063
aF0
aF0.54157214511243978
aF0.53260945741008747
aF1
aF0.99676437144187879
aF0.99857497576241983
aF0.67686059694968614
aF0.67125198873955572
aF0.6649096091696286
aF0.82434739720496353
aF0.81706012449852927
aF0.80804761718167384
aF0.28631976299426259
aF0.82789190810670243
aF0.81892922040435012
aF0.62056156661057127
aF0.61643741544851194
aF0.61546264034279974
a.